; ModuleID = '9/328.c'
source_filename = "9/328.c"
target datalayout = "e-m:e-p270:32:32-p271:32:32-p272:64:64-i64:64-f80:128-n8:16:32:64-S128"
target triple = "x86_64-pc-linux-gnu"

@.str = private unnamed_addr constant [3 x i8] c"%d\00", align 1
@.str.1 = private unnamed_addr constant [7 x i8] c"%s %d \00", align 1
@id = common dso_local global [100 x [100 x i8]] zeroinitializer, align 16
@age = common dso_local global [100 x i32] zeroinitializer, align 16
@oldage = common dso_local global [100 x i32] zeroinitializer, align 16
@oldid = common dso_local global [100 x [100 x i8]] zeroinitializer, align 16
@newage = common dso_local global [100 x i32] zeroinitializer, align 16
@newid = common dso_local global [100 x [100 x i8]] zeroinitializer, align 16
@.str.2 = private unnamed_addr constant [4 x i8] c"%s\0A\00", align 1

; Function Attrs: noinline nounwind uwtable
define dso_local i32 @main() #0 {
  %1 = alloca i32, align 4
  %2 = alloca i32, align 4
  %3 = alloca i32, align 4
  %4 = alloca i32, align 4
  %5 = alloca i32, align 4
  %6 = alloca i32, align 4
  %7 = alloca i32, align 4
  %8 = alloca [100 x i8], align 16
  store i32 0, i32* %1, align 4
  store i32 0, i32* %3, align 4
  store i32 0, i32* %4, align 4
  store i32 0, i32* %5, align 4
  store i32 0, i32* %6, align 4
  %9 = call i32 (i8*, ...) @__isoc99_scanf(i8* getelementptr inbounds ([3 x i8], [3 x i8]* @.str, i64 0, i64 0), i32* %2)
  store i32 0, i32* %3, align 4
  br label %10

10:                                               ; preds = %23, %0
  %11 = load i32, i32* %3, align 4
  %12 = load i32, i32* %2, align 4
  %13 = icmp slt i32 %11, %12
  br i1 %13, label %14, label %26

14:                                               ; preds = %10
  %15 = load i32, i32* %3, align 4
  %16 = sext i32 %15 to i64
  %17 = getelementptr inbounds [100 x [100 x i8]], [100 x [100 x i8]]* @id, i64 0, i64 %16
  %18 = getelementptr inbounds [100 x i8], [100 x i8]* %17, i64 0, i64 0
  %19 = load i32, i32* %3, align 4
  %20 = sext i32 %19 to i64
  %21 = getelementptr inbounds [100 x i32], [100 x i32]* @age, i64 0, i64 %20
  %22 = call i32 (i8*, ...) @__isoc99_scanf(i8* getelementptr inbounds ([7 x i8], [7 x i8]* @.str.1, i64 0, i64 0), i8* %18, i32* %21)
  br label %23

23:                                               ; preds = %14
  %24 = load i32, i32* %3, align 4
  %25 = add nsw i32 %24, 1
  store i32 %25, i32* %3, align 4
  br label %10

26:                                               ; preds = %10
  store i32 0, i32* %3, align 4
  br label %27

27:                                               ; preds = %76, %26
  %28 = load i32, i32* %3, align 4
  %29 = load i32, i32* %2, align 4
  %30 = icmp slt i32 %28, %29
  br i1 %30, label %31, label %79

31:                                               ; preds = %27
  %32 = load i32, i32* %3, align 4
  %33 = sext i32 %32 to i64
  %34 = getelementptr inbounds [100 x i32], [100 x i32]* @age, i64 0, i64 %33
  %35 = load i32, i32* %34, align 4
  %36 = icmp sge i32 %35, 60
  br i1 %36, label %37, label %56

37:                                               ; preds = %31
  %38 = load i32, i32* %3, align 4
  %39 = sext i32 %38 to i64
  %40 = getelementptr inbounds [100 x i32], [100 x i32]* @age, i64 0, i64 %39
  %41 = load i32, i32* %40, align 4
  %42 = load i32, i32* %4, align 4
  %43 = sext i32 %42 to i64
  %44 = getelementptr inbounds [100 x i32], [100 x i32]* @oldage, i64 0, i64 %43
  store i32 %41, i32* %44, align 4
  %45 = load i32, i32* %4, align 4
  %46 = sext i32 %45 to i64
  %47 = getelementptr inbounds [100 x [100 x i8]], [100 x [100 x i8]]* @oldid, i64 0, i64 %46
  %48 = getelementptr inbounds [100 x i8], [100 x i8]* %47, i64 0, i64 0
  %49 = load i32, i32* %3, align 4
  %50 = sext i32 %49 to i64
  %51 = getelementptr inbounds [100 x [100 x i8]], [100 x [100 x i8]]* @id, i64 0, i64 %50
  %52 = getelementptr inbounds [100 x i8], [100 x i8]* %51, i64 0, i64 0
  %53 = call i8* @strcpy(i8* %48, i8* %52) #3
  %54 = load i32, i32* %4, align 4
  %55 = add nsw i32 %54, 1
  store i32 %55, i32* %4, align 4
  br label %75

56:                                               ; preds = %31
  %57 = load i32, i32* %3, align 4
  %58 = sext i32 %57 to i64
  %59 = getelementptr inbounds [100 x i32], [100 x i32]* @age, i64 0, i64 %58
  %60 = load i32, i32* %59, align 4
  %61 = load i32, i32* %6, align 4
  %62 = sext i32 %61 to i64
  %63 = getelementptr inbounds [100 x i32], [100 x i32]* @newage, i64 0, i64 %62
  store i32 %60, i32* %63, align 4
  %64 = load i32, i32* %6, align 4
  %65 = sext i32 %64 to i64
  %66 = getelementptr inbounds [100 x [100 x i8]], [100 x [100 x i8]]* @newid, i64 0, i64 %65
  %67 = getelementptr inbounds [100 x i8], [100 x i8]* %66, i64 0, i64 0
  %68 = load i32, i32* %3, align 4
  %69 = sext i32 %68 to i64
  %70 = getelementptr inbounds [100 x [100 x i8]], [100 x [100 x i8]]* @id, i64 0, i64 %69
  %71 = getelementptr inbounds [100 x i8], [100 x i8]* %70, i64 0, i64 0
  %72 = call i8* @strcpy(i8* %67, i8* %71) #3
  %73 = load i32, i32* %6, align 4
  %74 = add nsw i32 %73, 1
  store i32 %74, i32* %6, align 4
  br label %75

75:                                               ; preds = %56, %37
  br label %76

76:                                               ; preds = %75
  %77 = load i32, i32* %3, align 4
  %78 = add nsw i32 %77, 1
  store i32 %78, i32* %3, align 4
  br label %27

79:                                               ; preds = %27
  store i32 1, i32* %5, align 4
  br label %80

80:                                               ; preds = %148, %79
  %81 = load i32, i32* %5, align 4
  %82 = load i32, i32* %4, align 4
  %83 = icmp sle i32 %81, %82
  br i1 %83, label %84, label %151

84:                                               ; preds = %80
  store i32 0, i32* %3, align 4
  br label %85

85:                                               ; preds = %144, %84
  %86 = load i32, i32* %3, align 4
  %87 = load i32, i32* %4, align 4
  %88 = load i32, i32* %5, align 4
  %89 = sub nsw i32 %87, %88
  %90 = icmp slt i32 %86, %89
  br i1 %90, label %91, label %147

91:                                               ; preds = %85
  %92 = load i32, i32* %3, align 4
  %93 = sext i32 %92 to i64
  %94 = getelementptr inbounds [100 x i32], [100 x i32]* @oldage, i64 0, i64 %93
  %95 = load i32, i32* %94, align 4
  %96 = load i32, i32* %3, align 4
  %97 = add nsw i32 %96, 1
  %98 = sext i32 %97 to i64
  %99 = getelementptr inbounds [100 x i32], [100 x i32]* @oldage, i64 0, i64 %98
  %100 = load i32, i32* %99, align 4
  %101 = icmp slt i32 %95, %100
  br i1 %101, label %102, label %143

102:                                              ; preds = %91
  %103 = load i32, i32* %3, align 4
  %104 = add nsw i32 %103, 1
  %105 = sext i32 %104 to i64
  %106 = getelementptr inbounds [100 x i32], [100 x i32]* @oldage, i64 0, i64 %105
  %107 = load i32, i32* %106, align 4
  store i32 %107, i32* %7, align 4
  %108 = getelementptr inbounds [100 x i8], [100 x i8]* %8, i64 0, i64 0
  %109 = load i32, i32* %3, align 4
  %110 = add nsw i32 %109, 1
  %111 = sext i32 %110 to i64
  %112 = getelementptr inbounds [100 x [100 x i8]], [100 x [100 x i8]]* @oldid, i64 0, i64 %111
  %113 = getelementptr inbounds [100 x i8], [100 x i8]* %112, i64 0, i64 0
  %114 = call i8* @strcpy(i8* %108, i8* %113) #3
  %115 = load i32, i32* %3, align 4
  %116 = sext i32 %115 to i64
  %117 = getelementptr inbounds [100 x i32], [100 x i32]* @oldage, i64 0, i64 %116
  %118 = load i32, i32* %117, align 4
  %119 = load i32, i32* %3, align 4
  %120 = add nsw i32 %119, 1
  %121 = sext i32 %120 to i64
  %122 = getelementptr inbounds [100 x i32], [100 x i32]* @oldage, i64 0, i64 %121
  store i32 %118, i32* %122, align 4
  %123 = load i32, i32* %3, align 4
  %124 = add nsw i32 %123, 1
  %125 = sext i32 %124 to i64
  %126 = getelementptr inbounds [100 x [100 x i8]], [100 x [100 x i8]]* @oldid, i64 0, i64 %125
  %127 = getelementptr inbounds [100 x i8], [100 x i8]* %126, i64 0, i64 0
  %128 = load i32, i32* %3, align 4
  %129 = sext i32 %128 to i64
  %130 = getelementptr inbounds [100 x [100 x i8]], [100 x [100 x i8]]* @oldid, i64 0, i64 %129
  %131 = getelementptr inbounds [100 x i8], [100 x i8]* %130, i64 0, i64 0
  %132 = call i8* @strcpy(i8* %127, i8* %131) #3
  %133 = load i32, i32* %7, align 4
  %134 = load i32, i32* %3, align 4
  %135 = sext i32 %134 to i64
  %136 = getelementptr inbounds [100 x i32], [100 x i32]* @oldage, i64 0, i64 %135
  store i32 %133, i32* %136, align 4
  %137 = load i32, i32* %3, align 4
  %138 = sext i32 %137 to i64
  %139 = getelementptr inbounds [100 x [100 x i8]], [100 x [100 x i8]]* @oldid, i64 0, i64 %138
  %140 = getelementptr inbounds [100 x i8], [100 x i8]* %139, i64 0, i64 0
  %141 = getelementptr inbounds [100 x i8], [100 x i8]* %8, i64 0, i64 0
  %142 = call i8* @strcpy(i8* %140, i8* %141) #3
  br label %143

143:                                              ; preds = %102, %91
  br label %144

144:                                              ; preds = %143
  %145 = load i32, i32* %3, align 4
  %146 = add nsw i32 %145, 1
  store i32 %146, i32* %3, align 4
  br label %85

147:                                              ; preds = %85
  br label %148

148:                                              ; preds = %147
  %149 = load i32, i32* %5, align 4
  %150 = add nsw i32 %149, 1
  store i32 %150, i32* %5, align 4
  br label %80

151:                                              ; preds = %80
  store i32 0, i32* %3, align 4
  br label %152

152:                                              ; preds = %162, %151
  %153 = load i32, i32* %3, align 4
  %154 = load i32, i32* %4, align 4
  %155 = icmp slt i32 %153, %154
  br i1 %155, label %156, label %165

156:                                              ; preds = %152
  %157 = load i32, i32* %3, align 4
  %158 = sext i32 %157 to i64
  %159 = getelementptr inbounds [100 x [100 x i8]], [100 x [100 x i8]]* @oldid, i64 0, i64 %158
  %160 = getelementptr inbounds [100 x i8], [100 x i8]* %159, i64 0, i64 0
  %161 = call i32 (i8*, ...) @printf(i8* getelementptr inbounds ([4 x i8], [4 x i8]* @.str.2, i64 0, i64 0), i8* %160)
  br label %162

162:                                              ; preds = %156
  %163 = load i32, i32* %3, align 4
  %164 = add nsw i32 %163, 1
  store i32 %164, i32* %3, align 4
  br label %152

165:                                              ; preds = %152
  store i32 0, i32* %3, align 4
  br label %166

166:                                              ; preds = %176, %165
  %167 = load i32, i32* %3, align 4
  %168 = load i32, i32* %6, align 4
  %169 = icmp slt i32 %167, %168
  br i1 %169, label %170, label %179

170:                                              ; preds = %166
  %171 = load i32, i32* %3, align 4
  %172 = sext i32 %171 to i64
  %173 = getelementptr inbounds [100 x [100 x i8]], [100 x [100 x i8]]* @newid, i64 0, i64 %172
  %174 = getelementptr inbounds [100 x i8], [100 x i8]* %173, i64 0, i64 0
  %175 = call i32 (i8*, ...) @printf(i8* getelementptr inbounds ([4 x i8], [4 x i8]* @.str.2, i64 0, i64 0), i8* %174)
  br label %176

176:                                              ; preds = %170
  %177 = load i32, i32* %3, align 4
  %178 = add nsw i32 %177, 1
  store i32 %178, i32* %3, align 4
  br label %166

179:                                              ; preds = %166
  ret i32 0
}

declare dso_local i32 @__isoc99_scanf(i8*, ...) #1

; Function Attrs: nounwind
declare dso_local i8* @strcpy(i8*, i8*) #2

declare dso_local i32 @printf(i8*, ...) #1


!llvm.module.flags = !{!0}
!llvm.ident = !{!1}

!0 = !{i32 1, !"wchar_size", i32 4}
!1 = !{!"clang version 10.0.0-4ubuntu1 "}
